target datalayout = "e-m:e-p270:32:32-p271:32:32-p272:64:64-i64:64-i128:128-f80:128-n8:16:32:64-S128"
target triple = "x86_64-pc-linux-gnu"

%struct.archive_read = type { %struct.archive, ptr, i32, i64, i64, %struct.archive_read_client, [16 x %struct.archive_read_filter_bidder], ptr, i32, i64, i32, i32, [16 x %struct.archive_format_descriptor], ptr, ptr, ptr, %struct.anon }
%struct.archive = type { i32, i32, ptr, i32, ptr, i32, i32, ptr, %struct.archive_string, ptr, i32, i32, ptr, ptr, i64, i64, i64, i8, i64 }
%struct.archive_string = type { ptr, i64, i64 }
%struct.archive_read_client = type { ptr, ptr, ptr, ptr, ptr, ptr, i32, i32, i64, ptr }
%struct.archive_read_filter_bidder = type { ptr, ptr, ptr }
%struct.archive_format_descriptor = type { ptr, ptr, ptr, ptr, ptr, ptr, ptr, ptr, ptr, ptr, ptr }
%struct.anon = type { ptr, ptr, i32, ptr, ptr }
%struct.zip = type { %struct.archive_string, i64, i64, i64, i64, i32, ptr, %struct.archive_rb_tree, %struct.archive_rb_tree, i64, ptr, i64, i64, i64, i64, ptr, i8, i8, i8, ptr, i64, %struct.z_stream_s, i8, %struct.lzma_stream, i8, %struct.bz_stream, i8, ptr, i8, %struct.IByteIn, i64, %struct.CPpmd8, i8, i8, ptr, ptr, ptr, i32, i32, i8, ptr, ptr, i64, i64, i64, %struct.trad_enc_ctx, i8, %struct.archive_crypto_ctx, i8, ptr, i8, i32, i32, i32, i32, i32, i32, i32, ptr, ptr, ptr }
%struct.archive_rb_tree = type { ptr, ptr }
%struct.z_stream_s = type { ptr, i32, i64, ptr, i32, i64, ptr, ptr, ptr, ptr, ptr, i32, i64, i64 }
%struct.lzma_stream = type { ptr, i64, i64, ptr, i64, i64, ptr, ptr, ptr, ptr, ptr, ptr, i64, i64, i64, i64, i32, i32 }
%struct.bz_stream = type { ptr, i32, i32, i32, ptr, i32, i32, i32, ptr, ptr, ptr, ptr }
%struct.IByteIn = type { ptr, ptr }
%struct.CPpmd8 = type { ptr, ptr, ptr, i32, i32, i32, i32, i32, i32, i32, i32, ptr, ptr, ptr, ptr, ptr, i32, i32, i32, i32, i32, %union.anon, [38 x i8], [128 x i8], [38 x i32], [38 x i32], [256 x i8], [260 x i8], %struct.CPpmd_See, [24 x [32 x %struct.CPpmd_See]], [25 x [64 x i16]] }
%union.anon = type { ptr }
%struct.CPpmd_See = type { i16, i8, i8 }
%struct.trad_enc_ctx = type { [3 x i32] }
%struct.archive_crypto_ctx = type { ptr, ptr, [32 x i8], i32, [16 x i8], [16 x i8], i32 }

@.str.90 = private unnamed_addr constant [26 x i8] c"Truncated bzip2 file body\00", align 1
@.str.91 = private unnamed_addr constant [38 x i8] c"Failed to clean up bzip2 decompressor\00", align 1
@.str.92 = private unnamed_addr constant [27 x i8] c"bzip2 decompression failed\00", align 1
@.str.93 = private unnamed_addr constant [32 x i8] c"bzip2 initialization failed(%d)\00", align 1
@.str.94 = private unnamed_addr constant [34 x i8] c"No memory for bzip2 decompression\00", align 1

; Function Attrs: nounwind uwtable
define internal i32 @zipx_bzip2_init(ptr noundef %0, ptr noundef %1) #0 {
  %3 = alloca i32, align 4
  %4 = alloca ptr, align 8
  %5 = alloca ptr, align 8
  %6 = alloca i32, align 4
  %7 = alloca i32, align 4
  store ptr %0, ptr %4, align 8, !tbaa !11
  store ptr %1, ptr %5, align 8, !tbaa !13
  call void @llvm.lifetime.start.p0(i64 4, ptr %6) #11
  %8 = load ptr, ptr %5, align 8, !tbaa !13
  %9 = getelementptr inbounds nuw %struct.zip, ptr %8, i32 0, i32 26
  %10 = load i8, ptr %9, align 8, !tbaa !104
  %11 = icmp ne i8 %10, 0
  br i1 %11, label %12, label %18

12:                                               ; preds = %2
  %13 = load ptr, ptr %5, align 8, !tbaa !13
  %14 = getelementptr inbounds nuw %struct.zip, ptr %13, i32 0, i32 25
  %15 = call i32 @BZ2_bzDecompressEnd(ptr noundef %14)
  %16 = load ptr, ptr %5, align 8, !tbaa !13
  %17 = getelementptr inbounds nuw %struct.zip, ptr %16, i32 0, i32 26
  store i8 0, ptr %17, align 8, !tbaa !104
  br label %18

18:                                               ; preds = %12, %2
  %19 = load ptr, ptr %5, align 8, !tbaa !13
  %20 = getelementptr inbounds nuw %struct.zip, ptr %19, i32 0, i32 25
  call void @llvm.memset.p0.i64(ptr align 8 %20, i8 0, i64 80, i1 false)
  %21 = load ptr, ptr %5, align 8, !tbaa !13
  %22 = getelementptr inbounds nuw %struct.zip, ptr %21, i32 0, i32 25
  %23 = call i32 @BZ2_bzDecompressInit(ptr noundef %22, i32 noundef 0, i32 noundef 1)
  store i32 %23, ptr %6, align 4, !tbaa !9
  %24 = load i32, ptr %6, align 4, !tbaa !9
  %25 = icmp ne i32 %24, 0
  br i1 %25, label %26, label %30

26:                                               ; preds = %18
  %27 = load ptr, ptr %4, align 8, !tbaa !11
  %28 = getelementptr inbounds nuw %struct.archive_read, ptr %27, i32 0, i32 0
  %29 = load i32, ptr %6, align 4, !tbaa !9
  call void (ptr, i32, ptr, ...) @archive_set_error(ptr noundef %28, i32 noundef -1, ptr noundef @.str.93, i32 noundef %29)
  store i32 -25, ptr %3, align 4
  store i32 1, ptr %7, align 4
  br label %54

30:                                               ; preds = %18
  %31 = load ptr, ptr %5, align 8, !tbaa !13
  %32 = getelementptr inbounds nuw %struct.zip, ptr %31, i32 0, i32 26
  store i8 1, ptr %32, align 8, !tbaa !104
  %33 = load ptr, ptr %5, align 8, !tbaa !13
  %34 = getelementptr inbounds nuw %struct.zip, ptr %33, i32 0, i32 19
  %35 = load ptr, ptr %34, align 8, !tbaa !107
  call void @free(ptr noundef %35) #11
  %36 = load ptr, ptr %5, align 8, !tbaa !13
  %37 = getelementptr inbounds nuw %struct.zip, ptr %36, i32 0, i32 20
  store i64 262144, ptr %37, align 8, !tbaa !158
  %38 = load ptr, ptr %5, align 8, !tbaa !13
  %39 = getelementptr inbounds nuw %struct.zip, ptr %38, i32 0, i32 20
  %40 = load i64, ptr %39, align 8, !tbaa !158
  %41 = call noalias ptr @malloc(i64 noundef %40) #14
  %42 = load ptr, ptr %5, align 8, !tbaa !13
  %43 = getelementptr inbounds nuw %struct.zip, ptr %42, i32 0, i32 19
  store ptr %41, ptr %43, align 8, !tbaa !107
  %44 = load ptr, ptr %5, align 8, !tbaa !13
  %45 = getelementptr inbounds nuw %struct.zip, ptr %44, i32 0, i32 19
  %46 = load ptr, ptr %45, align 8, !tbaa !107
  %47 = icmp eq ptr %46, null
  br i1 %47, label %48, label %51

48:                                               ; preds = %30
  %49 = load ptr, ptr %4, align 8, !tbaa !11
  %50 = getelementptr inbounds nuw %struct.archive_read, ptr %49, i32 0, i32 0
  call void (ptr, i32, ptr, ...) @archive_set_error(ptr noundef %50, i32 noundef 12, ptr noundef @.str.94)
  store i32 -30, ptr %3, align 4
  store i32 1, ptr %7, align 4
  br label %54

51:                                               ; preds = %30
  %52 = load ptr, ptr %5, align 8, !tbaa !13
  %53 = getelementptr inbounds nuw %struct.zip, ptr %52, i32 0, i32 17
  store i8 1, ptr %53, align 1, !tbaa !123
  store i32 0, ptr %3, align 4
  store i32 1, ptr %7, align 4
  br label %54

54:                                               ; preds = %51, %48, %26
  call void @llvm.lifetime.end.p0(i64 4, ptr %6) #11
  %55 = load i32, ptr %3, align 4
  ret i32 %55
}

; Function Attrs: nounwind uwtable
define internal i32 @zip_read_data_zipx_bzip2(ptr noundef %0, ptr noundef %1, ptr noundef %2, ptr noundef %3) #0 {
  %5 = alloca i32, align 4
  %6 = alloca ptr, align 8
  %7 = alloca ptr, align 8
  %8 = alloca ptr, align 8
  %9 = alloca ptr, align 8
  %10 = alloca ptr, align 8
  %11 = alloca i64, align 8
  %12 = alloca i64, align 8
  %13 = alloca i64, align 8
  %14 = alloca ptr, align 8
  %15 = alloca i32, align 4
  %16 = alloca i64, align 8
  %17 = alloca i32, align 4
  store ptr %0, ptr %6, align 8, !tbaa !11
  store ptr %1, ptr %7, align 8, !tbaa !44
  store ptr %2, ptr %8, align 8, !tbaa !81
  store ptr %3, ptr %9, align 8, !tbaa !81
  call void @llvm.lifetime.start.p0(i64 8, ptr %10) #11
  %18 = load ptr, ptr %6, align 8, !tbaa !11
  %19 = getelementptr inbounds nuw %struct.archive_read, ptr %18, i32 0, i32 13
  %20 = load ptr, ptr %19, align 8, !tbaa !47
  %21 = getelementptr inbounds nuw %struct.archive_format_descriptor, ptr %20, i32 0, i32 0
  %22 = load ptr, ptr %21, align 8, !tbaa !60
  store ptr %22, ptr %10, align 8, !tbaa !13
  call void @llvm.lifetime.start.p0(i64 8, ptr %11) #11
  store i64 0, ptr %11, align 8, !tbaa !43
  call void @llvm.lifetime.start.p0(i64 8, ptr %12) #11
  call void @llvm.lifetime.start.p0(i64 8, ptr %13) #11
  call void @llvm.lifetime.start.p0(i64 8, ptr %14) #11
  call void @llvm.lifetime.start.p0(i64 4, ptr %15) #11
  call void @llvm.lifetime.start.p0(i64 8, ptr %16) #11
  %23 = load ptr, ptr %10, align 8, !tbaa !13
  %24 = getelementptr inbounds nuw %struct.zip, ptr %23, i32 0, i32 17
  %25 = load i8, ptr %24, align 1, !tbaa !123
  %26 = icmp ne i8 %25, 0
  br i1 %26, label %36, label %27

27:                                               ; preds = %4
  %28 = load ptr, ptr %6, align 8, !tbaa !11
  %29 = load ptr, ptr %10, align 8, !tbaa !13
  %30 = call i32 @zipx_bzip2_init(ptr noundef %28, ptr noundef %29)
  store i32 %30, ptr %15, align 4, !tbaa !9
  %31 = load i32, ptr %15, align 4, !tbaa !9
  %32 = icmp ne i32 %31, 0
  br i1 %32, label %33, label %35

33:                                               ; preds = %27
  %34 = load i32, ptr %15, align 4, !tbaa !9
  store i32 %34, ptr %5, align 4
  store i32 1, ptr %17, align 4
  br label %159

35:                                               ; preds = %27
  br label %36

36:                                               ; preds = %35, %4
  %37 = load ptr, ptr %6, align 8, !tbaa !11
  %38 = call ptr @__archive_read_ahead(ptr noundef %37, i64 noundef 1, ptr noundef %11)
  store ptr %38, ptr %14, align 8, !tbaa !44
  %39 = load i64, ptr %11, align 8, !tbaa !43
  %40 = icmp slt i64 %39, 0
  br i1 %40, label %41, label %44

41:                                               ; preds = %36
  %42 = load ptr, ptr %6, align 8, !tbaa !11
  %43 = getelementptr inbounds nuw %struct.archive_read, ptr %42, i32 0, i32 0
  call void (ptr, i32, ptr, ...) @archive_set_error(ptr noundef %43, i32 noundef 84, ptr noundef @.str.90)
  store i32 -30, ptr %5, align 4
  store i32 1, ptr %17, align 4
  br label %159

44:                                               ; preds = %36
  %45 = load ptr, ptr %10, align 8, !tbaa !13
  %46 = getelementptr inbounds nuw %struct.zip, ptr %45, i32 0, i32 11
  %47 = load i64, ptr %46, align 8, !tbaa !98
  %48 = load i64, ptr %11, align 8, !tbaa !43
  %49 = icmp slt i64 %47, %48
  br i1 %49, label %50, label %54

50:                                               ; preds = %44
  %51 = load ptr, ptr %10, align 8, !tbaa !13
  %52 = getelementptr inbounds nuw %struct.zip, ptr %51, i32 0, i32 11
  %53 = load i64, ptr %52, align 8, !tbaa !98
  br label %56

54:                                               ; preds = %44
  %55 = load i64, ptr %11, align 8, !tbaa !43
  br label %56

56:                                               ; preds = %54, %50
  %57 = phi i64 [ %53, %50 ], [ %55, %54 ]
  store i64 %57, ptr %12, align 8, !tbaa !43
  %58 = load i64, ptr %12, align 8, !tbaa !43
  %59 = icmp slt i64 %58, 1
  br i1 %59, label %60, label %63

60:                                               ; preds = %56
  %61 = load ptr, ptr %6, align 8, !tbaa !11
  %62 = getelementptr inbounds nuw %struct.archive_read, ptr %61, i32 0, i32 0
  call void (ptr, i32, ptr, ...) @archive_set_error(ptr noundef %62, i32 noundef 84, ptr noundef @.str.90)
  store i32 -30, ptr %5, align 4
  store i32 1, ptr %17, align 4
  br label %159

63:                                               ; preds = %56
  %64 = load ptr, ptr %14, align 8, !tbaa !44
  %65 = ptrtoint ptr %64 to i64
  %66 = inttoptr i64 %65 to ptr
  %67 = load ptr, ptr %10, align 8, !tbaa !13
  %68 = getelementptr inbounds nuw %struct.zip, ptr %67, i32 0, i32 25
  %69 = getelementptr inbounds nuw %struct.bz_stream, ptr %68, i32 0, i32 0
  store ptr %66, ptr %69, align 8, !tbaa !197
  %70 = load i64, ptr %12, align 8, !tbaa !43
  %71 = trunc i64 %70 to i32
  %72 = load ptr, ptr %10, align 8, !tbaa !13
  %73 = getelementptr inbounds nuw %struct.zip, ptr %72, i32 0, i32 25
  %74 = getelementptr inbounds nuw %struct.bz_stream, ptr %73, i32 0, i32 1
  store i32 %71, ptr %74, align 8, !tbaa !198
  %75 = load ptr, ptr %10, align 8, !tbaa !13
  %76 = getelementptr inbounds nuw %struct.zip, ptr %75, i32 0, i32 25
  %77 = getelementptr inbounds nuw %struct.bz_stream, ptr %76, i32 0, i32 3
  store i32 0, ptr %77, align 8, !tbaa !199
  %78 = load ptr, ptr %10, align 8, !tbaa !13
  %79 = getelementptr inbounds nuw %struct.zip, ptr %78, i32 0, i32 25
  %80 = getelementptr inbounds nuw %struct.bz_stream, ptr %79, i32 0, i32 2
  store i32 0, ptr %80, align 4, !tbaa !200
  %81 = load ptr, ptr %10, align 8, !tbaa !13
  %82 = getelementptr inbounds nuw %struct.zip, ptr %81, i32 0, i32 19
  %83 = load ptr, ptr %82, align 8, !tbaa !107
  %84 = load ptr, ptr %10, align 8, !tbaa !13
  %85 = getelementptr inbounds nuw %struct.zip, ptr %84, i32 0, i32 25
  %86 = getelementptr inbounds nuw %struct.bz_stream, ptr %85, i32 0, i32 4
  store ptr %83, ptr %86, align 8, !tbaa !201
  %87 = load ptr, ptr %10, align 8, !tbaa !13
  %88 = getelementptr inbounds nuw %struct.zip, ptr %87, i32 0, i32 20
  %89 = load i64, ptr %88, align 8, !tbaa !158
  %90 = trunc i64 %89 to i32
  %91 = load ptr, ptr %10, align 8, !tbaa !13
  %92 = getelementptr inbounds nuw %struct.zip, ptr %91, i32 0, i32 25
  %93 = getelementptr inbounds nuw %struct.bz_stream, ptr %92, i32 0, i32 5
  store i32 %90, ptr %93, align 8, !tbaa !202
  %94 = load ptr, ptr %10, align 8, !tbaa !13
  %95 = getelementptr inbounds nuw %struct.zip, ptr %94, i32 0, i32 25
  %96 = getelementptr inbounds nuw %struct.bz_stream, ptr %95, i32 0, i32 7
  store i32 0, ptr %96, align 8, !tbaa !203
  %97 = load ptr, ptr %10, align 8, !tbaa !13
  %98 = getelementptr inbounds nuw %struct.zip, ptr %97, i32 0, i32 25
  %99 = getelementptr inbounds nuw %struct.bz_stream, ptr %98, i32 0, i32 6
  store i32 0, ptr %99, align 4, !tbaa !204
  %100 = load ptr, ptr %10, align 8, !tbaa !13
  %101 = getelementptr inbounds nuw %struct.zip, ptr %100, i32 0, i32 25
  %102 = call i32 @BZ2_bzDecompress(ptr noundef %101)
  store i32 %102, ptr %15, align 4, !tbaa !9
  %103 = load i32, ptr %15, align 4, !tbaa !9
  switch i32 %103, label %114 [
    i32 4, label %104
    i32 0, label %117
  ]

104:                                              ; preds = %63
  %105 = load ptr, ptr %10, align 8, !tbaa !13
  %106 = getelementptr inbounds nuw %struct.zip, ptr %105, i32 0, i32 25
  %107 = call i32 @BZ2_bzDecompressEnd(ptr noundef %106)
  switch i32 %107, label %108 [
    i32 0, label %111
  ]

108:                                              ; preds = %104
  %109 = load ptr, ptr %6, align 8, !tbaa !11
  %110 = getelementptr inbounds nuw %struct.archive_read, ptr %109, i32 0, i32 0
  call void (ptr, i32, ptr, ...) @archive_set_error(ptr noundef %110, i32 noundef -1, ptr noundef @.str.91)
  store i32 -30, ptr %5, align 4
  store i32 1, ptr %17, align 4
  br label %159

111:                                              ; preds = %104
  %112 = load ptr, ptr %10, align 8, !tbaa !13
  %113 = getelementptr inbounds nuw %struct.zip, ptr %112, i32 0, i32 18
  store i8 1, ptr %113, align 2, !tbaa !84
  br label %117

114:                                              ; preds = %63
  %115 = load ptr, ptr %6, align 8, !tbaa !11
  %116 = getelementptr inbounds nuw %struct.archive_read, ptr %115, i32 0, i32 0
  call void (ptr, i32, ptr, ...) @archive_set_error(ptr noundef %116, i32 noundef -1, ptr noundef @.str.92)
  store i32 -30, ptr %5, align 4
  store i32 1, ptr %17, align 4
  br label %159

117:                                              ; preds = %63, %111
  %118 = load ptr, ptr %10, align 8, !tbaa !13
  %119 = getelementptr inbounds nuw %struct.zip, ptr %118, i32 0, i32 25
  %120 = getelementptr inbounds nuw %struct.bz_stream, ptr %119, i32 0, i32 2
  %121 = load i32, ptr %120, align 4, !tbaa !200
  %122 = zext i32 %121 to i64
  store i64 %122, ptr %13, align 8, !tbaa !43
  %123 = load ptr, ptr %6, align 8, !tbaa !11
  %124 = load i64, ptr %13, align 8, !tbaa !43
  %125 = call i64 @__archive_read_consume(ptr noundef %123, i64 noundef %124)
  %126 = load ptr, ptr %10, align 8, !tbaa !13
  %127 = getelementptr inbounds nuw %struct.zip, ptr %126, i32 0, i32 25
  %128 = getelementptr inbounds nuw %struct.bz_stream, ptr %127, i32 0, i32 7
  %129 = load i32, ptr %128, align 8, !tbaa !203
  %130 = zext i32 %129 to i64
  %131 = shl i64 %130, 32
  %132 = load ptr, ptr %10, align 8, !tbaa !13
  %133 = getelementptr inbounds nuw %struct.zip, ptr %132, i32 0, i32 25
  %134 = getelementptr inbounds nuw %struct.bz_stream, ptr %133, i32 0, i32 6
  %135 = load i32, ptr %134, align 4, !tbaa !204
  %136 = zext i32 %135 to i64
  %137 = or i64 %131, %136
  store i64 %137, ptr %16, align 8, !tbaa !43
  %138 = load i64, ptr %13, align 8, !tbaa !43
  %139 = load ptr, ptr %10, align 8, !tbaa !13
  %140 = getelementptr inbounds nuw %struct.zip, ptr %139, i32 0, i32 11
  %141 = load i64, ptr %140, align 8, !tbaa !98
  %142 = sub nsw i64 %141, %138
  store i64 %142, ptr %140, align 8, !tbaa !98
  %143 = load i64, ptr %13, align 8, !tbaa !43
  %144 = load ptr, ptr %10, align 8, !tbaa !13
  %145 = getelementptr inbounds nuw %struct.zip, ptr %144, i32 0, i32 12
  %146 = load i64, ptr %145, align 8, !tbaa !96
  %147 = add nsw i64 %146, %143
  store i64 %147, ptr %145, align 8, !tbaa !96
  %148 = load i64, ptr %16, align 8, !tbaa !43
  %149 = load ptr, ptr %10, align 8, !tbaa !13
  %150 = getelementptr inbounds nuw %struct.zip, ptr %149, i32 0, i32 13
  %151 = load i64, ptr %150, align 8, !tbaa !83
  %152 = add i64 %151, %148
  store i64 %152, ptr %150, align 8, !tbaa !83
  %153 = load i64, ptr %16, align 8, !tbaa !43
  %154 = load ptr, ptr %8, align 8, !tbaa !81
  store i64 %153, ptr %154, align 8, !tbaa !43
  %155 = load ptr, ptr %10, align 8, !tbaa !13
  %156 = getelementptr inbounds nuw %struct.zip, ptr %155, i32 0, i32 19
  %157 = load ptr, ptr %156, align 8, !tbaa !107
  %158 = load ptr, ptr %7, align 8, !tbaa !44
  store ptr %157, ptr %158, align 8, !tbaa !44
  store i32 0, ptr %5, align 4
  store i32 1, ptr %17, align 4
  br label %159

159:                                              ; preds = %117, %114, %108, %60, %41, %33
  call void @llvm.lifetime.end.p0(i64 8, ptr %16) #11
  call void @llvm.lifetime.end.p0(i64 4, ptr %15) #11
  call void @llvm.lifetime.end.p0(i64 8, ptr %14) #11
  call void @llvm.lifetime.end.p0(i64 8, ptr %13) #11
  call void @llvm.lifetime.end.p0(i64 8, ptr %12) #11
  call void @llvm.lifetime.end.p0(i64 8, ptr %11) #11
  call void @llvm.lifetime.end.p0(i64 8, ptr %10) #11
  %160 = load i32, ptr %5, align 4
  ret i32 %160
}