; Function Attrs: nounwind uwtable
define internal fastcc range(i32 -30, 1) i32 @zip_read_data_zipx_bzip2(ptr noundef %0, ptr noundef writeonly captures(none) %1, ptr noundef writeonly captures(none) %2) unnamed_addr #0 {
  %4 = alloca i64, align 8
  %5 = getelementptr inbounds nuw i8, ptr %0, i64 2072
  %6 = load ptr, ptr %5, align 8, !tbaa !37
  %7 = load ptr, ptr %6, align 8, !tbaa !50
  call void @llvm.lifetime.start.p0(i64 8, ptr nonnull %4) #21
  store i64 0, ptr %4, align 8, !tbaa !69
  %8 = getelementptr inbounds nuw i8, ptr %7, i64 161
  %9 = load i8, ptr %8, align 1, !tbaa !131
  %.not = icmp eq i8 %9, 0
  br i1 %.not, label %10, label %27

10:                                               ; preds = %3
  %11 = getelementptr inbounds nuw i8, ptr %7, i64 528
  %12 = load i8, ptr %11, align 8, !tbaa !98
  %.not.i = icmp eq i8 %12, 0
  br i1 %.not.i, label %16, label %13

13:                                               ; preds = %10
  %14 = getelementptr inbounds nuw i8, ptr %7, i64 448
  %15 = tail call i32 @BZ2_bzDecompressEnd(ptr noundef nonnull %14) #21
  store i8 0, ptr %11, align 8, !tbaa !98
  br label %16

16:                                               ; preds = %13, %10
  %17 = getelementptr inbounds nuw i8, ptr %7, i64 448
  tail call void @llvm.memset.p0.i64(ptr noundef nonnull align 8 dereferenceable(80) %17, i8 0, i64 80, i1 false)
  %18 = tail call i32 @BZ2_bzDecompressInit(ptr noundef nonnull %17, i32 noundef 0, i32 noundef 1) #21
  %.not17.i = icmp eq i32 %18, 0
  br i1 %.not17.i, label %20, label %19

19:                                               ; preds = %16
  tail call void (ptr, i32, ptr, ...) @archive_set_error(ptr noundef nonnull %0, i32 noundef -1, ptr noundef nonnull @.str.93, i32 noundef %18) #21
  br label %zipx_bzip2_init.exit.thread

20:                                               ; preds = %16
  store i8 1, ptr %11, align 8, !tbaa !98
  %21 = getelementptr inbounds nuw i8, ptr %7, i64 168
  %22 = load ptr, ptr %21, align 8, !tbaa !101
  tail call void @free(ptr noundef %22) #21
  %23 = getelementptr inbounds nuw i8, ptr %7, i64 176
  store i64 262144, ptr %23, align 8, !tbaa !156
  %24 = tail call noalias dereferenceable_or_null(262144) ptr @malloc(i64 noundef 262144) #24
  store ptr %24, ptr %21, align 8, !tbaa !101
  %25 = icmp eq ptr %24, null
  br i1 %25, label %26, label %zipx_bzip2_init.exit

26:                                               ; preds = %20
  tail call void (ptr, i32, ptr, ...) @archive_set_error(ptr noundef nonnull %0, i32 noundef 12, ptr noundef nonnull @.str.94) #21
  br label %zipx_bzip2_init.exit.thread

zipx_bzip2_init.exit:                             ; preds = %20
  store i8 1, ptr %8, align 1, !tbaa !131
  br label %27

27:                                               ; preds = %zipx_bzip2_init.exit, %3
  %28 = call ptr @__archive_read_ahead(ptr noundef nonnull %0, i64 noundef 1, ptr noundef nonnull %4) #21
  %29 = load i64, ptr %4, align 8, !tbaa !69
  %30 = icmp slt i64 %29, 0
  br i1 %30, label %31, label %32

31:                                               ; preds = %27
  call void (ptr, i32, ptr, ...) @archive_set_error(ptr noundef nonnull %0, i32 noundef 84, ptr noundef nonnull @.str.90) #21
  br label %zipx_bzip2_init.exit.thread

32:                                               ; preds = %27
  %33 = getelementptr inbounds nuw i8, ptr %7, i64 120
  %34 = load i64, ptr %33, align 8, !tbaa !92
  %. = call i64 @llvm.smin.i64(i64 %34, i64 %29)
  %35 = icmp slt i64 %., 1
  br i1 %35, label %36, label %37

36:                                               ; preds = %32
  call void (ptr, i32, ptr, ...) @archive_set_error(ptr noundef nonnull %0, i32 noundef 84, ptr noundef nonnull @.str.90) #21
  br label %zipx_bzip2_init.exit.thread

37:                                               ; preds = %32
  %38 = getelementptr inbounds nuw i8, ptr %7, i64 448
  store ptr %28, ptr %38, align 8, !tbaa !181
  %39 = trunc i64 %. to i32
  %40 = getelementptr inbounds nuw i8, ptr %7, i64 456
  store i32 %39, ptr %40, align 8, !tbaa !182
  %41 = getelementptr inbounds nuw i8, ptr %7, i64 464
  store i32 0, ptr %41, align 8, !tbaa !183
  %42 = getelementptr inbounds nuw i8, ptr %7, i64 460
  store i32 0, ptr %42, align 4, !tbaa !184
  %43 = getelementptr inbounds nuw i8, ptr %7, i64 168
  %44 = load ptr, ptr %43, align 8, !tbaa !101
  %45 = getelementptr inbounds nuw i8, ptr %7, i64 472
  store ptr %44, ptr %45, align 8, !tbaa !185
  %46 = getelementptr inbounds nuw i8, ptr %7, i64 176
  %47 = load i64, ptr %46, align 8, !tbaa !156
  %48 = trunc i64 %47 to i32
  %49 = getelementptr inbounds nuw i8, ptr %7, i64 480
  store i32 %48, ptr %49, align 8, !tbaa !186
  %50 = getelementptr inbounds nuw i8, ptr %7, i64 488
  store i32 0, ptr %50, align 8, !tbaa !187
  %51 = getelementptr inbounds nuw i8, ptr %7, i64 484
  store i32 0, ptr %51, align 4, !tbaa !188
  %52 = call i32 @BZ2_bzDecompress(ptr noundef nonnull %38) #21
  switch i32 %52, label %58 [
    i32 4, label %53
    i32 0, label %59
  ]

53:                                               ; preds = %37
  %54 = call i32 @BZ2_bzDecompressEnd(ptr noundef nonnull %38) #21
  %cond = icmp eq i32 %54, 0
  br i1 %cond, label %56, label %55

55:                                               ; preds = %53
  call void (ptr, i32, ptr, ...) @archive_set_error(ptr noundef nonnull %0, i32 noundef -1, ptr noundef nonnull @.str.91) #21
  br label %zipx_bzip2_init.exit.thread

56:                                               ; preds = %53
  %57 = getelementptr inbounds nuw i8, ptr %7, i64 162
  store i8 1, ptr %57, align 2, !tbaa !74
  br label %59

58:                                               ; preds = %37
  call void (ptr, i32, ptr, ...) @archive_set_error(ptr noundef nonnull %0, i32 noundef -1, ptr noundef nonnull @.str.92) #21
  br label %zipx_bzip2_init.exit.thread

59:                                               ; preds = %56, %37
  %60 = load i32, ptr %42, align 4, !tbaa !184
  %61 = zext i32 %60 to i64
  %62 = call i64 @__archive_read_consume(ptr noundef nonnull %0, i64 noundef %61) #21
  %63 = load i32, ptr %50, align 8, !tbaa !187
  %64 = zext i32 %63 to i64
  %65 = shl nuw i64 %64, 32
  %66 = load i32, ptr %51, align 4, !tbaa !188
  %67 = zext i32 %66 to i64
  %68 = or disjoint i64 %65, %67
  %69 = load i64, ptr %33, align 8, !tbaa !92
  %70 = sub nsw i64 %69, %61
  store i64 %70, ptr %33, align 8, !tbaa !92
  %71 = getelementptr inbounds nuw i8, ptr %7, i64 128
  %72 = load i64, ptr %71, align 8, !tbaa !88
  %73 = add nsw i64 %72, %61
  store i64 %73, ptr %71, align 8, !tbaa !88
  %74 = getelementptr inbounds nuw i8, ptr %7, i64 136
  %75 = load i64, ptr %74, align 8, !tbaa !72
  %76 = add i64 %75, %68
  store i64 %76, ptr %74, align 8, !tbaa !72
  store i64 %68, ptr %2, align 8, !tbaa !69
  %77 = load ptr, ptr %43, align 8, !tbaa !101
  store ptr %77, ptr %1, align 8, !tbaa !73
  br label %zipx_bzip2_init.exit.thread

zipx_bzip2_init.exit.thread:                      ; preds = %26, %19, %59, %58, %55, %36, %31
  %.0 = phi i32 [ -30, %31 ], [ -30, %36 ], [ -30, %58 ], [ 0, %59 ], [ -30, %55 ], [ -30, %26 ], [ -25, %19 ]
  call void @llvm.lifetime.end.p0(i64 8, ptr nonnull %4) #21
  ret i32 %.0
}